target datalayout = "e-m:e-p270:32:32-p271:32:32-p272:64:64-i64:64-i128:128-f80:128-n8:16:32:64-S128"
target triple = "x86_64-pc-linux-gnu"

%struct.BrotliEncoderStateStruct = type { %struct.BrotliEncoderParams, %struct.MemoryManager, i64, %struct.RingBuffer, i64, ptr, i64, i64, i64, i64, i64, [16 x i32], [4 x i32], i16, i8, i8, i8, i8, i64, ptr, %struct.Hasher, [1024 x i32], ptr, i64, ptr, ptr, ptr, ptr, i64, ptr, i64, i64, %union.anon.0, i32, i32, i32, i32 }
%struct.BrotliEncoderParams = type { i32, i32, i32, i32, i64, i64, i32, i32, %struct.BrotliHasherParams, %struct.BrotliDistanceParams, %struct.SharedEncoderDictionary }
%struct.BrotliHasherParams = type { i32, i32, i32, i32 }
%struct.BrotliDistanceParams = type { i32, i32, i32, i32, i64 }
%struct.SharedEncoderDictionary = type { i32, %struct.CompoundDictionary, %struct.ContextualEncoderDictionary, i32 }
%struct.CompoundDictionary = type { i64, i64, [16 x ptr], [16 x ptr], [16 x i64], i64, [16 x ptr] }
%struct.ContextualEncoderDictionary = type { i32, i8, [64 x i8], [64 x ptr], i64, %struct.BrotliEncoderDictionary, ptr }
%struct.BrotliEncoderDictionary = type { ptr, i32, i32, i64, ptr, ptr, ptr, ptr, %struct.BrotliTrie, i32, ptr, ptr, ptr, i64, ptr, i64, ptr, ptr }
%struct.BrotliTrie = type { ptr, i64, i64, %struct.BrotliTrieNode }
%struct.BrotliTrieNode = type { i8, i8, i8, i32, i32 }
%struct.MemoryManager = type { ptr, ptr, ptr }
%struct.RingBuffer = type { i32, i32, i32, i32, i32, i32, ptr, ptr }
%struct.Hasher = type { %struct.HasherCommon, %union.anon }
%struct.HasherCommon = type { [4 x ptr], i32, i64, i64, %struct.BrotliHasherParams, i32 }
%union.anon = type { %struct.H42 }
%struct.H42 = type { [512 x i16], i64, [2 x ptr], ptr }
%union.anon.0 = type { [2 x i64] }

; Function Attrs: alwaysinline nounwind uwtable
define internal void @RingBufferInit(ptr noundef %0) #3 {
  %2 = alloca ptr, align 8
  store ptr %0, ptr %2, align 8, !tbaa !89
  %3 = load ptr, ptr %2, align 8, !tbaa !89
  %4 = getelementptr inbounds nuw %struct.RingBuffer, ptr %3, i32 0, i32 4
  store i32 0, ptr %4, align 8, !tbaa !169
  %5 = load ptr, ptr %2, align 8, !tbaa !89
  %6 = getelementptr inbounds nuw %struct.RingBuffer, ptr %5, i32 0, i32 5
  store i32 0, ptr %6, align 4, !tbaa !91
  %7 = load ptr, ptr %2, align 8, !tbaa !89
  %8 = getelementptr inbounds nuw %struct.RingBuffer, ptr %7, i32 0, i32 6
  store ptr null, ptr %8, align 8, !tbaa !170
  %9 = load ptr, ptr %2, align 8, !tbaa !89
  %10 = getelementptr inbounds nuw %struct.RingBuffer, ptr %9, i32 0, i32 7
  store ptr null, ptr %10, align 8, !tbaa !93
  ret void
}

; Function Attrs: alwaysinline nounwind uwtable
define internal void @HasherInit(ptr noundef %0) #3 {
  %2 = alloca ptr, align 8
  store ptr %0, ptr %2, align 8, !tbaa !48
  %3 = load ptr, ptr %2, align 8, !tbaa !48
  %4 = getelementptr inbounds nuw %struct.Hasher, ptr %3, i32 0, i32 0
  %5 = getelementptr inbounds nuw %struct.HasherCommon, ptr %4, i32 0, i32 1
  store i32 0, ptr %5, align 8, !tbaa !168
  %6 = load ptr, ptr %2, align 8, !tbaa !48
  %7 = getelementptr inbounds nuw %struct.Hasher, ptr %6, i32 0, i32 0
  %8 = getelementptr inbounds nuw %struct.HasherCommon, ptr %7, i32 0, i32 0
  %9 = getelementptr inbounds [4 x ptr], ptr %8, i64 0, i64 0
  store ptr null, ptr %9, align 8, !tbaa !48
  %10 = load ptr, ptr %2, align 8, !tbaa !48
  %11 = getelementptr inbounds nuw %struct.Hasher, ptr %10, i32 0, i32 0
  %12 = getelementptr inbounds nuw %struct.HasherCommon, ptr %11, i32 0, i32 0
  %13 = getelementptr inbounds [4 x ptr], ptr %12, i64 0, i64 1
  store ptr null, ptr %13, align 8, !tbaa !48
  %14 = load ptr, ptr %2, align 8, !tbaa !48
  %15 = getelementptr inbounds nuw %struct.Hasher, ptr %14, i32 0, i32 0
  %16 = getelementptr inbounds nuw %struct.HasherCommon, ptr %15, i32 0, i32 0
  %17 = getelementptr inbounds [4 x ptr], ptr %16, i64 0, i64 2
  store ptr null, ptr %17, align 8, !tbaa !48
  %18 = load ptr, ptr %2, align 8, !tbaa !48
  %19 = getelementptr inbounds nuw %struct.Hasher, ptr %18, i32 0, i32 0
  %20 = getelementptr inbounds nuw %struct.HasherCommon, ptr %19, i32 0, i32 0
  %21 = getelementptr inbounds [4 x ptr], ptr %20, i64 0, i64 3
  store ptr null, ptr %21, align 8, !tbaa !48
  ret void
}

; Function Attrs: nounwind uwtable
define internal void @BrotliEncoderInitParams(ptr noundef %0) #0 {
  %2 = alloca ptr, align 8
  store ptr %0, ptr %2, align 8, !tbaa !129
  %3 = load ptr, ptr %2, align 8, !tbaa !129
  %4 = getelementptr inbounds nuw %struct.BrotliEncoderParams, ptr %3, i32 0, i32 0
  store i32 0, ptr %4, align 8, !tbaa !131
  %5 = load ptr, ptr %2, align 8, !tbaa !129
  %6 = getelementptr inbounds nuw %struct.BrotliEncoderParams, ptr %5, i32 0, i32 7
  store i32 0, ptr %6, align 4, !tbaa !127
  %7 = load ptr, ptr %2, align 8, !tbaa !129
  %8 = getelementptr inbounds nuw %struct.BrotliEncoderParams, ptr %7, i32 0, i32 1
  store i32 11, ptr %8, align 4, !tbaa !124
  %9 = load ptr, ptr %2, align 8, !tbaa !129
  %10 = getelementptr inbounds nuw %struct.BrotliEncoderParams, ptr %9, i32 0, i32 2
  store i32 22, ptr %10, align 8, !tbaa !125
  %11 = load ptr, ptr %2, align 8, !tbaa !129
  %12 = getelementptr inbounds nuw %struct.BrotliEncoderParams, ptr %11, i32 0, i32 3
  store i32 0, ptr %12, align 4, !tbaa !128
  %13 = load ptr, ptr %2, align 8, !tbaa !129
  %14 = getelementptr inbounds nuw %struct.BrotliEncoderParams, ptr %13, i32 0, i32 4
  store i64 0, ptr %14, align 8, !tbaa !132
  %15 = load ptr, ptr %2, align 8, !tbaa !129
  %16 = getelementptr inbounds nuw %struct.BrotliEncoderParams, ptr %15, i32 0, i32 5
  store i64 0, ptr %16, align 8, !tbaa !126
  %17 = load ptr, ptr %2, align 8, !tbaa !129
  %18 = getelementptr inbounds nuw %struct.BrotliEncoderParams, ptr %17, i32 0, i32 6
  store i32 0, ptr %18, align 8, !tbaa !133
  %19 = load ptr, ptr %2, align 8, !tbaa !129
  %20 = getelementptr inbounds nuw %struct.BrotliEncoderParams, ptr %19, i32 0, i32 10
  call void @BrotliInitSharedEncoderDictionary(ptr noundef %20)
  %21 = load ptr, ptr %2, align 8, !tbaa !129
  %22 = getelementptr inbounds nuw %struct.BrotliEncoderParams, ptr %21, i32 0, i32 9
  %23 = getelementptr inbounds nuw %struct.BrotliDistanceParams, ptr %22, i32 0, i32 0
  store i32 0, ptr %23, align 8, !tbaa !134
  %24 = load ptr, ptr %2, align 8, !tbaa !129
  %25 = getelementptr inbounds nuw %struct.BrotliEncoderParams, ptr %24, i32 0, i32 9
  %26 = getelementptr inbounds nuw %struct.BrotliDistanceParams, ptr %25, i32 0, i32 1
  store i32 0, ptr %26, align 4, !tbaa !135
  %27 = load ptr, ptr %2, align 8, !tbaa !129
  %28 = getelementptr inbounds nuw %struct.BrotliEncoderParams, ptr %27, i32 0, i32 9
  %29 = getelementptr inbounds nuw %struct.BrotliDistanceParams, ptr %28, i32 0, i32 2
  store i32 64, ptr %29, align 8, !tbaa !136
  %30 = load ptr, ptr %2, align 8, !tbaa !129
  %31 = getelementptr inbounds nuw %struct.BrotliEncoderParams, ptr %30, i32 0, i32 9
  %32 = getelementptr inbounds nuw %struct.BrotliDistanceParams, ptr %31, i32 0, i32 2
  %33 = load i32, ptr %32, align 8, !tbaa !136
  %34 = load ptr, ptr %2, align 8, !tbaa !129
  %35 = getelementptr inbounds nuw %struct.BrotliEncoderParams, ptr %34, i32 0, i32 9
  %36 = getelementptr inbounds nuw %struct.BrotliDistanceParams, ptr %35, i32 0, i32 3
  store i32 %33, ptr %36, align 4, !tbaa !137
  %37 = load ptr, ptr %2, align 8, !tbaa !129
  %38 = getelementptr inbounds nuw %struct.BrotliEncoderParams, ptr %37, i32 0, i32 9
  %39 = getelementptr inbounds nuw %struct.BrotliDistanceParams, ptr %38, i32 0, i32 4
  store i64 67108860, ptr %39, align 8, !tbaa !138
  ret void
}

; Function Attrs: nounwind uwtable
define internal void @BrotliEncoderInitState(ptr noundef %0) #0 {
  %2 = alloca ptr, align 8
  store ptr %0, ptr %2, align 8, !tbaa !3
  %3 = load ptr, ptr %2, align 8, !tbaa !3
  %4 = getelementptr inbounds nuw %struct.BrotliEncoderStateStruct, ptr %3, i32 0, i32 0
  call void @BrotliEncoderInitParams(ptr noundef %4)
  %5 = load ptr, ptr %2, align 8, !tbaa !3
  %6 = getelementptr inbounds nuw %struct.BrotliEncoderStateStruct, ptr %5, i32 0, i32 2
  store i64 0, ptr %6, align 8, !tbaa !49
  %7 = load ptr, ptr %2, align 8, !tbaa !3
  %8 = getelementptr inbounds nuw %struct.BrotliEncoderStateStruct, ptr %7, i32 0, i32 6
  store i64 0, ptr %8, align 8, !tbaa !50
  %9 = load ptr, ptr %2, align 8, !tbaa !3
  %10 = getelementptr inbounds nuw %struct.BrotliEncoderStateStruct, ptr %9, i32 0, i32 7
  store i64 0, ptr %10, align 8, !tbaa !51
  %11 = load ptr, ptr %2, align 8, !tbaa !3
  %12 = getelementptr inbounds nuw %struct.BrotliEncoderStateStruct, ptr %11, i32 0, i32 8
  store i64 0, ptr %12, align 8, !tbaa !52
  %13 = load ptr, ptr %2, align 8, !tbaa !3
  %14 = getelementptr inbounds nuw %struct.BrotliEncoderStateStruct, ptr %13, i32 0, i32 9
  store i64 0, ptr %14, align 8, !tbaa !53
  %15 = load ptr, ptr %2, align 8, !tbaa !3
  %16 = getelementptr inbounds nuw %struct.BrotliEncoderStateStruct, ptr %15, i32 0, i32 10
  store i64 0, ptr %16, align 8, !tbaa !54
  %17 = load ptr, ptr %2, align 8, !tbaa !3
  %18 = getelementptr inbounds nuw %struct.BrotliEncoderStateStruct, ptr %17, i32 0, i32 16
  store i8 0, ptr %18, align 4, !tbaa !55
  %19 = load ptr, ptr %2, align 8, !tbaa !3
  %20 = getelementptr inbounds nuw %struct.BrotliEncoderStateStruct, ptr %19, i32 0, i32 17
  store i8 0, ptr %20, align 1, !tbaa !56
  %21 = load ptr, ptr %2, align 8, !tbaa !3
  %22 = getelementptr inbounds nuw %struct.BrotliEncoderStateStruct, ptr %21, i32 0, i32 18
  store i64 0, ptr %22, align 8, !tbaa !57
  %23 = load ptr, ptr %2, align 8, !tbaa !3
  %24 = getelementptr inbounds nuw %struct.BrotliEncoderStateStruct, ptr %23, i32 0, i32 19
  store ptr null, ptr %24, align 8, !tbaa !58
  %25 = load ptr, ptr %2, align 8, !tbaa !3
  %26 = getelementptr inbounds nuw %struct.BrotliEncoderStateStruct, ptr %25, i32 0, i32 20
  call void @HasherInit(ptr noundef %26)
  %27 = load ptr, ptr %2, align 8, !tbaa !3
  %28 = getelementptr inbounds nuw %struct.BrotliEncoderStateStruct, ptr %27, i32 0, i32 22
  store ptr null, ptr %28, align 8, !tbaa !59
  %29 = load ptr, ptr %2, align 8, !tbaa !3
  %30 = getelementptr inbounds nuw %struct.BrotliEncoderStateStruct, ptr %29, i32 0, i32 23
  store i64 0, ptr %30, align 8, !tbaa !60
  %31 = load ptr, ptr %2, align 8, !tbaa !3
  %32 = getelementptr inbounds nuw %struct.BrotliEncoderStateStruct, ptr %31, i32 0, i32 24
  store ptr null, ptr %32, align 8, !tbaa !61
  %33 = load ptr, ptr %2, align 8, !tbaa !3
  %34 = getelementptr inbounds nuw %struct.BrotliEncoderStateStruct, ptr %33, i32 0, i32 25
  store ptr null, ptr %34, align 8, !tbaa !62
  %35 = load ptr, ptr %2, align 8, !tbaa !3
  %36 = getelementptr inbounds nuw %struct.BrotliEncoderStateStruct, ptr %35, i32 0, i32 26
  store ptr null, ptr %36, align 8, !tbaa !63
  %37 = load ptr, ptr %2, align 8, !tbaa !3
  %38 = getelementptr inbounds nuw %struct.BrotliEncoderStateStruct, ptr %37, i32 0, i32 27
  store ptr null, ptr %38, align 8, !tbaa !64
  %39 = load ptr, ptr %2, align 8, !tbaa !3
  %40 = getelementptr inbounds nuw %struct.BrotliEncoderStateStruct, ptr %39, i32 0, i32 28
  store i64 0, ptr %40, align 8, !tbaa !65
  %41 = load ptr, ptr %2, align 8, !tbaa !3
  %42 = getelementptr inbounds nuw %struct.BrotliEncoderStateStruct, ptr %41, i32 0, i32 29
  store ptr null, ptr %42, align 8, !tbaa !66
  %43 = load ptr, ptr %2, align 8, !tbaa !3
  %44 = getelementptr inbounds nuw %struct.BrotliEncoderStateStruct, ptr %43, i32 0, i32 30
  store i64 0, ptr %44, align 8, !tbaa !67
  %45 = load ptr, ptr %2, align 8, !tbaa !3
  %46 = getelementptr inbounds nuw %struct.BrotliEncoderStateStruct, ptr %45, i32 0, i32 31
  store i64 0, ptr %46, align 8, !tbaa !68
  %47 = load ptr, ptr %2, align 8, !tbaa !3
  %48 = getelementptr inbounds nuw %struct.BrotliEncoderStateStruct, ptr %47, i32 0, i32 34
  store i32 0, ptr %48, align 4, !tbaa !69
  %49 = load ptr, ptr %2, align 8, !tbaa !3
  %50 = getelementptr inbounds nuw %struct.BrotliEncoderStateStruct, ptr %49, i32 0, i32 35
  store i32 0, ptr %50, align 8, !tbaa !70
  %51 = load ptr, ptr %2, align 8, !tbaa !3
  %52 = getelementptr inbounds nuw %struct.BrotliEncoderStateStruct, ptr %51, i32 0, i32 36
  store i32 0, ptr %52, align 4, !tbaa !10
  %53 = load ptr, ptr %2, align 8, !tbaa !3
  %54 = getelementptr inbounds nuw %struct.BrotliEncoderStateStruct, ptr %53, i32 0, i32 3
  call void @RingBufferInit(ptr noundef %54)
  %55 = load ptr, ptr %2, align 8, !tbaa !3
  %56 = getelementptr inbounds nuw %struct.BrotliEncoderStateStruct, ptr %55, i32 0, i32 5
  store ptr null, ptr %56, align 8, !tbaa !71
  %57 = load ptr, ptr %2, align 8, !tbaa !3
  %58 = getelementptr inbounds nuw %struct.BrotliEncoderStateStruct, ptr %57, i32 0, i32 4
  store i64 0, ptr %58, align 8, !tbaa !72
  %59 = load ptr, ptr %2, align 8, !tbaa !3
  %60 = getelementptr inbounds nuw %struct.BrotliEncoderStateStruct, ptr %59, i32 0, i32 11
  %61 = getelementptr inbounds [16 x i32], ptr %60, i64 0, i64 0
  store i32 4, ptr %61, align 8, !tbaa !8
  %62 = load ptr, ptr %2, align 8, !tbaa !3
  %63 = getelementptr inbounds nuw %struct.BrotliEncoderStateStruct, ptr %62, i32 0, i32 11
  %64 = getelementptr inbounds [16 x i32], ptr %63, i64 0, i64 1
  store i32 11, ptr %64, align 4, !tbaa !8
  %65 = load ptr, ptr %2, align 8, !tbaa !3
  %66 = getelementptr inbounds nuw %struct.BrotliEncoderStateStruct, ptr %65, i32 0, i32 11
  %67 = getelementptr inbounds [16 x i32], ptr %66, i64 0, i64 2
  store i32 15, ptr %67, align 8, !tbaa !8
  %68 = load ptr, ptr %2, align 8, !tbaa !3
  %69 = getelementptr inbounds nuw %struct.BrotliEncoderStateStruct, ptr %68, i32 0, i32 11
  %70 = getelementptr inbounds [16 x i32], ptr %69, i64 0, i64 3
  store i32 16, ptr %70, align 4, !tbaa !8
  %71 = load ptr, ptr %2, align 8, !tbaa !3
  %72 = getelementptr inbounds nuw %struct.BrotliEncoderStateStruct, ptr %71, i32 0, i32 12
  %73 = getelementptr inbounds [4 x i32], ptr %72, i64 0, i64 0
  %74 = load ptr, ptr %2, align 8, !tbaa !3
  %75 = getelementptr inbounds nuw %struct.BrotliEncoderStateStruct, ptr %74, i32 0, i32 11
  %76 = getelementptr inbounds [16 x i32], ptr %75, i64 0, i64 0
  call void @llvm.memcpy.p0.p0.i64(ptr align 8 %73, ptr align 8 %76, i64 16, i1 false)
  ret void
}

; Function Attrs: nounwind uwtable
define ptr @BrotliEncoderCreateInstance(ptr noundef %0, ptr noundef %1, ptr noundef %2) #0 {
  %4 = alloca ptr, align 8
  %5 = alloca ptr, align 8
  %6 = alloca ptr, align 8
  %7 = alloca ptr, align 8
  %8 = alloca ptr, align 8
  %9 = alloca i32, align 4
  store ptr %0, ptr %5, align 8, !tbaa !48
  store ptr %1, ptr %6, align 8, !tbaa !48
  store ptr %2, ptr %7, align 8, !tbaa !48
  call void @llvm.lifetime.start.p0(i64 8, ptr %8) #10
  %10 = load ptr, ptr %5, align 8, !tbaa !48
  %11 = load ptr, ptr %6, align 8, !tbaa !48
  %12 = load ptr, ptr %7, align 8, !tbaa !48
  %13 = call ptr @BrotliBootstrapAlloc(i64 noundef 6976, ptr noundef %10, ptr noundef %11, ptr noundef %12)
  store ptr %13, ptr %8, align 8, !tbaa !3
  %14 = load ptr, ptr %8, align 8, !tbaa !3
  %15 = icmp eq ptr %14, null
  br i1 %15, label %16, label %17

16:                                               ; preds = %3
  store ptr null, ptr %4, align 8
  store i32 1, ptr %9, align 4
  br label %25

17:                                               ; preds = %3
  %18 = load ptr, ptr %8, align 8, !tbaa !3
  %19 = getelementptr inbounds nuw %struct.BrotliEncoderStateStruct, ptr %18, i32 0, i32 1
  %20 = load ptr, ptr %5, align 8, !tbaa !48
  %21 = load ptr, ptr %6, align 8, !tbaa !48
  %22 = load ptr, ptr %7, align 8, !tbaa !48
  call void @BrotliInitMemoryManager(ptr noundef %19, ptr noundef %20, ptr noundef %21, ptr noundef %22)
  %23 = load ptr, ptr %8, align 8, !tbaa !3
  call void @BrotliEncoderInitState(ptr noundef %23)
  %24 = load ptr, ptr %8, align 8, !tbaa !3
  store ptr %24, ptr %4, align 8
  store i32 1, ptr %9, align 4
  br label %25

25:                                               ; preds = %17, %16
  call void @llvm.lifetime.end.p0(i64 8, ptr %8) #10
  %26 = load ptr, ptr %4, align 8
  ret ptr %26
}