; Function Attrs: nounwind uwtable
define ptr @BrotliEncoderCreateInstance(ptr noundef %0, ptr noundef %1, ptr noundef %2) local_unnamed_addr #1 {
  %4 = tail call ptr @BrotliBootstrapAlloc(i64 noundef 6976, ptr noundef %0, ptr noundef %1, ptr noundef %2) #18
  %5 = icmp eq ptr %4, null
  br i1 %5, label %32, label %6

6:                                                ; preds = %3
  %7 = getelementptr inbounds nuw i8, ptr %4, i64 1400
  tail call void @BrotliInitMemoryManager(ptr noundef nonnull %7, ptr noundef %0, ptr noundef %1, ptr noundef %2) #18
  store i32 0, ptr %4, align 8, !tbaa !45
  %8 = getelementptr inbounds nuw i8, ptr %4, i64 36
  store i32 0, ptr %8, align 4, !tbaa !46
  %9 = getelementptr inbounds nuw i8, ptr %4, i64 4
  store i32 11, ptr %9, align 4, !tbaa !47
  %10 = getelementptr inbounds nuw i8, ptr %4, i64 8
  store i32 22, ptr %10, align 8, !tbaa !48
  %11 = getelementptr inbounds nuw i8, ptr %4, i64 12
  %12 = getelementptr inbounds nuw i8, ptr %4, i64 80
  tail call void @llvm.memset.p0.i64(ptr noundef nonnull align 4 dereferenceable(24) %11, i8 0, i64 24, i1 false)
  tail call void @BrotliInitSharedEncoderDictionary(ptr noundef nonnull %12) #18
  %13 = getelementptr inbounds nuw i8, ptr %4, i64 56
  store i32 0, ptr %13, align 8, !tbaa !49
  %14 = getelementptr inbounds nuw i8, ptr %4, i64 60
  store i32 0, ptr %14, align 4, !tbaa !50
  %15 = getelementptr inbounds nuw i8, ptr %4, i64 64
  store i32 64, ptr %15, align 8, !tbaa !51
  %16 = getelementptr inbounds nuw i8, ptr %4, i64 68
  store i32 64, ptr %16, align 4, !tbaa !52
  %17 = getelementptr inbounds nuw i8, ptr %4, i64 72
  store i64 67108860, ptr %17, align 8, !tbaa !53
  %18 = getelementptr inbounds nuw i8, ptr %4, i64 1424
  store i64 0, ptr %18, align 8, !tbaa !54
  %19 = getelementptr inbounds nuw i8, ptr %4, i64 1612
  store i8 0, ptr %19, align 4, !tbaa !55
  %20 = getelementptr inbounds nuw i8, ptr %4, i64 1613
  store i8 0, ptr %20, align 1, !tbaa !56
  %21 = getelementptr inbounds nuw i8, ptr %4, i64 1616
  %22 = getelementptr inbounds nuw i8, ptr %4, i64 6864
  %23 = getelementptr inbounds nuw i8, ptr %4, i64 6964
  store i32 0, ptr %23, align 4, !tbaa !57
  %24 = getelementptr inbounds nuw i8, ptr %4, i64 6968
  store i32 0, ptr %24, align 8, !tbaa !58
  %25 = getelementptr inbounds nuw i8, ptr %4, i64 6972
  store i32 0, ptr %25, align 4, !tbaa !3
  %26 = getelementptr inbounds nuw i8, ptr %4, i64 1448
  %27 = getelementptr inbounds nuw i8, ptr %4, i64 1528
  tail call void @llvm.memset.p0.i64(ptr noundef nonnull align 8 dereferenceable(80) %26, i8 0, i64 80, i1 false)
  tail call void @llvm.memset.p0.i64(ptr noundef nonnull align 8 dereferenceable(52) %21, i8 0, i64 52, i1 false)
  tail call void @llvm.memset.p0.i64(ptr noundef nonnull align 8 dereferenceable(80) %22, i8 0, i64 80, i1 false)
  store i32 4, ptr %27, align 8, !tbaa !59
  %28 = getelementptr inbounds nuw i8, ptr %4, i64 1532
  store i32 11, ptr %28, align 4, !tbaa !59
  %29 = getelementptr inbounds nuw i8, ptr %4, i64 1536
  store i32 15, ptr %29, align 8, !tbaa !59
  %30 = getelementptr inbounds nuw i8, ptr %4, i64 1540
  store i32 16, ptr %30, align 4, !tbaa !59
  %31 = getelementptr inbounds nuw i8, ptr %4, i64 1592
  tail call void @llvm.memcpy.p0.p0.i64(ptr noundef nonnull align 8 dereferenceable(16) %31, ptr noundef nonnull align 8 dereferenceable(16) %27, i64 16, i1 false)
  br label %32

32:                                               ; preds = %3, %6
  ret ptr %4
}